Certificate:
    Data:
        Version: 3 (0x2)
        Serial Number: 15624081837803162906 (0xd8d3e3a6cbe3cd1a)
    Signature Algorithm: sha256WithRSAEncryption
        Issuer: C=FI, O=w1.fi, CN=Root CA
        Validity
            Not Before: Oct  3 22:13:55 2018 GMT
            Not After : Oct  3 22:13:55 2019 GMT
        Subject: C=FI, O=w1.fi, CN=server6.w1.fi
        Subject Public Key Info:
            Public Key Algorithm: rsaEncryption
                Public-Key: (1024 bit)
                Modulus:
                    00:ca:30:1e:fd:13:6a:02:28:51:9a:0e:a9:1e:72:
                    7e:e7:5a:c8:cb:0c:7e:8a:99:81:8d:05:b3:09:b0:
                    a9:86:e7:ae:44:fa:e0:c7:ee:f3:18:b4:31:65:e3:
                    05:6f:66:4e:e3:e4:85:81:9b:47:7f:5f:b5:16:2b:
                    b0:59:91:9c:c5:55:d3:d3:ca:2c:81:ce:f0:27:a8:
                    54:de:0e:4f:d8:f0:11:bd:0b:10:56:38:26:df:a9:
                    3a:95:15:93:a6:16:ed:d2:1e:b4:b5:c0:a8:61:8e:
                    ae:10:04:fd:e6:26:ca:4a:0d:90:4b:b9:ac:c9:94:
                    f2:b1:6b:97:6b:60:24:ea:bd
                Exponent: 65537 (0x10001)
        X509v3 extensions:
            X509v3 Basic Constraints: 
                CA:FALSE
            X509v3 Subject Key Identifier: 
                C7:C6:EF:F5:61:D2:A0:08:81:6A:6B:44:2C:F5:72:F7:DA:DE:5B:B9
            X509v3 Authority Key Identifier: 
                keyid:B8:92:DE:FD:8A:18:B3:30:C3:9F:55:F3:33:5D:B4:C8:29:8A:41:14

            Authority Information Access: 
                OCSP - URI:http://server.w1.fi:8888/

            X509v3 Extended Key Usage: 
                TLS Web Client Authentication, TLS Web Server Authentication
    Signature Algorithm: sha256WithRSAEncryption
         6d:25:9d:07:b2:54:61:8a:27:71:bb:94:3f:9d:20:60:41:68:
         7c:f6:c1:56:c8:22:a4:4c:3c:59:67:3a:db:a3:10:6f:fc:0b:
         83:81:2b:1a:e3:b9:a4:7b:50:ba:94:fa:43:4d:08:3f:22:f6:
         a9:ee:92:0b:30:d1:46:e8:d5:05:a5:38:cc:4c:b2:13:8d:a9:
         9c:7d:7d:26:c8:9c:b4:b2:58:df:87:a7:05:6e:f1:51:93:46:
         13:77:91:3c:f0:d7:19:02:e9:4a:95:e6:d1:7b:71:22:6d:79:
         a0:45:94:98:15:bf:be:bd:bb:a7:d2:36:8b:56:4d:7c:2a:cc:
         07:0a
-----BEGIN CERTIFICATE-----
MIIChzCCAfCgAwIBAgIJANjT46bL480aMA0GCSqGSIb3DQEBCwUAMC8xCzAJBgNV
BAYTAkZJMQ4wDAYDVQQKDAV3MS5maTEQMA4GA1UEAwwHUm9vdCBDQTAeFw0xODEw
MDMyMjEzNTVaFw0xOTEwMDMyMjEzNTVaMDUxCzAJBgNVBAYTAkZJMQ4wDAYDVQQK
DAV3MS5maTEWMBQGA1UEAwwNc2VydmVyNi53MS5maTCBnzANBgkqhkiG9w0BAQEF
AAOBjQAwgYkCgYEAyjAe/RNqAihRmg6pHnJ+51rIywx+ipmBjQWzCbCphueuRPrg
x+7zGLQxZeMFb2ZO4+SFgZtHf1+1FiuwWZGcxVXT08osgc7wJ6hU3g5P2PARvQsQ
Vjgm36k6lRWTphbt0h60tcCoYY6uEAT95ibKSg2QS7msyZTysWuXa2Ak6r0CAwEA
AaOBpDCBoTAJBgNVHRMEAjAAMB0GA1UdDgQWBBTHxu/1YdKgCIFqa0Qs9XL32t5b
uTAfBgNVHSMEGDAWgBS4kt79ihizMMOfVfMzXbTIKYpBFDA1BggrBgEFBQcBAQQp
MCcwJQYIKwYBBQUHMAGGGWh0dHA6Ly9zZXJ2ZXIudzEuZmk6ODg4OC8wHQYDVR0l
BBYwFAYIKwYBBQUHAwIGCCsGAQUFBwMBMA0GCSqGSIb3DQEBCwUAA4GBAG0lnQey
VGGKJ3G7lD+dIGBBaHz2wVbIIqRMPFlnOtujEG/8C4OBKxrjuaR7ULqU+kNNCD8i
9qnukgsw0Ubo1QWlOMxMshONqZx9fSbInLSyWN+HpwVu8VGTRhN3kTzw1xkC6UqV
5tF7cSJteaBFlJgVv769u6fSNotWTXwqzAcK
-----END CERTIFICATE-----
