Certificate:
    Data:
        Version: 3 (0x2)
        Serial Number: 15624081837803162904 (0xd8d3e3a6cbe3cd18)
    Signature Algorithm: sha256WithRSAEncryption
        Issuer: C=FI, O=w1.fi, CN=Root CA
        Validity
            Not Before: Oct  3 22:13:55 2018 GMT
            Not After : Oct  3 22:13:55 2019 GMT
        Subject: C=FI, O=w1.fi, CN=server3.w1.fi
        Subject Public Key Info:
            Public Key Algorithm: rsaEncryption
                Public-Key: (1024 bit)
                Modulus:
                    00:db:fc:0f:a1:48:87:68:86:c4:9e:7a:f8:18:28:
                    77:6d:a3:58:0f:db:be:6b:d4:43:43:c4:ba:17:37:
                    9b:a8:ff:96:a2:73:14:13:1c:ae:19:0f:81:54:35:
                    10:64:94:e3:64:65:be:9b:0b:16:d2:9e:92:98:77:
                    87:e2:9a:99:fc:1d:57:0c:8a:0d:4c:21:2f:ae:67:
                    d7:63:61:eb:91:5b:58:2f:ad:67:66:65:e4:83:07:
                    ca:6a:36:a5:e6:20:f6:5c:99:27:db:63:e5:86:d8:
                    2b:7c:1d:90:44:81:22:21:77:0a:03:05:c3:eb:63:
                    61:b3:4c:32:c0:87:87:3a:47
                Exponent: 65537 (0x10001)
        X509v3 extensions:
            X509v3 Basic Constraints: 
                CA:FALSE
            X509v3 Subject Key Identifier: 
                8E:9A:4F:4D:46:AD:59:AC:7F:4C:9C:BE:6D:5B:D7:99:63:8D:C7:70
            X509v3 Authority Key Identifier: 
                keyid:B8:92:DE:FD:8A:18:B3:30:C3:9F:55:F3:33:5D:B4:C8:29:8A:41:14

            Authority Information Access: 
                OCSP - URI:http://server.w1.fi:8888/

            X509v3 Extended Key Usage: 
                TLS Web Server Authentication
    Signature Algorithm: sha256WithRSAEncryption
         06:f7:a9:82:0d:61:44:10:b3:f6:6b:6d:3b:11:49:f5:22:e0:
         2d:99:a7:df:e1:19:b4:d4:c1:f0:d7:97:8c:c2:db:f5:59:39:
         cc:bc:3f:c0:bd:f9:7d:97:b5:05:04:8c:1d:7a:10:cf:ac:95:
         85:7b:ae:b2:da:9b:a6:da:05:c9:a6:68:66:c4:f4:cc:71:4f:
         85:77:98:2e:a6:96:0f:d0:38:8d:fb:0b:03:9f:3e:89:01:15:
         9f:0e:73:4b:57:13:5c:f4:05:1c:96:35:be:cc:18:28:e5:d6:
         eb:93:6a:2f:a9:c5:5e:5a:d0:6d:04:c3:98:e2:b2:d8:f2:c4:
         8a:64
-----BEGIN CERTIFICATE-----
MIICfTCCAeagAwIBAgIJANjT46bL480YMA0GCSqGSIb3DQEBCwUAMC8xCzAJBgNV
BAYTAkZJMQ4wDAYDVQQKDAV3MS5maTEQMA4GA1UEAwwHUm9vdCBDQTAeFw0xODEw
MDMyMjEzNTVaFw0xOTEwMDMyMjEzNTVaMDUxCzAJBgNVBAYTAkZJMQ4wDAYDVQQK
DAV3MS5maTEWMBQGA1UEAwwNc2VydmVyMy53MS5maTCBnzANBgkqhkiG9w0BAQEF
AAOBjQAwgYkCgYEA2/wPoUiHaIbEnnr4GCh3baNYD9u+a9RDQ8S6FzebqP+WonMU
ExyuGQ+BVDUQZJTjZGW+mwsW0p6SmHeH4pqZ/B1XDIoNTCEvrmfXY2HrkVtYL61n
ZmXkgwfKajal5iD2XJkn22PlhtgrfB2QRIEiIXcKAwXD62Nhs0wywIeHOkcCAwEA
AaOBmjCBlzAJBgNVHRMEAjAAMB0GA1UdDgQWBBSOmk9NRq1ZrH9MnL5tW9eZY43H
cDAfBgNVHSMEGDAWgBS4kt79ihizMMOfVfMzXbTIKYpBFDA1BggrBgEFBQcBAQQp
MCcwJQYIKwYBBQUHMAGGGWh0dHA6Ly9zZXJ2ZXIudzEuZmk6ODg4OC8wEwYDVR0l
BAwwCgYIKwYBBQUHAwEwDQYJKoZIhvcNAQELBQADgYEABvepgg1hRBCz9mttOxFJ
9SLgLZmn3+EZtNTB8NeXjMLb9Vk5zLw/wL35fZe1BQSMHXoQz6yVhXuustqbptoF
yaZoZsT0zHFPhXeYLqaWD9A4jfsLA58+iQEVnw5zS1cTXPQFHJY1vswYKOXW65Nq
L6nFXlrQbQTDmOKy2PLEimQ=
-----END CERTIFICATE-----
