Certificate:
    Data:
        Version: 3 (0x2)
        Serial Number: 15624081837803162905 (0xd8d3e3a6cbe3cd19)
    Signature Algorithm: sha256WithRSAEncryption
        Issuer: C=FI, O=w1.fi, CN=Root CA
        Validity
            Not Before: Oct  3 22:13:55 2018 GMT
            Not After : Oct  3 22:13:55 2019 GMT
        Subject: C=FI, O=w1.fi, CN=server5.w1.fi
        Subject Public Key Info:
            Public Key Algorithm: rsaEncryption
                Public-Key: (1024 bit)
                Modulus:
                    00:a3:99:e9:e2:e1:17:60:3b:70:34:1a:74:5c:46:
                    e3:b8:bd:bb:aa:c9:f3:ee:fb:12:30:a0:69:c3:74:
                    38:80:3a:ba:23:52:c7:c1:6a:cf:ba:dd:41:e3:d2:
                    69:35:a4:a6:60:6c:31:1f:85:bd:56:6c:7b:09:63:
                    cd:a7:51:6b:84:40:90:77:7e:97:68:7b:38:b5:c4:
                    15:3b:74:37:34:28:ba:7a:e2:d7:84:53:78:76:4d:
                    16:b7:b8:df:09:72:e7:87:26:74:2c:04:ca:c5:ce:
                    29:f5:b4:ce:db:28:eb:45:47:42:8f:ed:88:5a:a3:
                    23:49:9b:7b:bc:39:e1:01:53
                Exponent: 65537 (0x10001)
        X509v3 extensions:
            X509v3 Basic Constraints: 
                CA:FALSE
            X509v3 Subject Key Identifier: 
                33:16:9D:3B:17:15:82:2B:34:6E:38:E8:CC:22:BF:49:A7:5E:2A:2B
            X509v3 Authority Key Identifier: 
                keyid:B8:92:DE:FD:8A:18:B3:30:C3:9F:55:F3:33:5D:B4:C8:29:8A:41:14

            Authority Information Access: 
                OCSP - URI:http://server.w1.fi:8888/

            X509v3 Extended Key Usage: 
                TLS Web Client Authentication
    Signature Algorithm: sha256WithRSAEncryption
         66:75:73:86:b8:50:8d:7a:43:9e:fe:ab:ac:61:39:f8:46:03:
         86:9d:31:9b:d7:98:e5:1a:a6:4f:f7:5e:bb:1c:dc:a6:6d:c2:
         f1:1c:a0:00:e3:1c:d0:2f:71:f3:c1:51:83:e5:1c:36:55:de:
         37:9b:71:26:5f:b3:38:58:34:d7:f8:1a:3f:f5:c6:d3:12:85:
         cf:73:ac:a4:f0:d0:52:23:e9:95:9e:3e:f8:7e:3a:07:a8:76:
         68:87:f1:19:79:d7:a3:47:3e:ab:f8:22:34:68:3d:3e:84:6c:
         d6:4b:be:12:4c:6e:0a:98:20:23:b0:72:f7:f8:33:4f:42:e9:
         12:9e
-----BEGIN CERTIFICATE-----
MIICfTCCAeagAwIBAgIJANjT46bL480ZMA0GCSqGSIb3DQEBCwUAMC8xCzAJBgNV
BAYTAkZJMQ4wDAYDVQQKDAV3MS5maTEQMA4GA1UEAwwHUm9vdCBDQTAeFw0xODEw
MDMyMjEzNTVaFw0xOTEwMDMyMjEzNTVaMDUxCzAJBgNVBAYTAkZJMQ4wDAYDVQQK
DAV3MS5maTEWMBQGA1UEAwwNc2VydmVyNS53MS5maTCBnzANBgkqhkiG9w0BAQEF
AAOBjQAwgYkCgYEAo5np4uEXYDtwNBp0XEbjuL27qsnz7vsSMKBpw3Q4gDq6I1LH
wWrPut1B49JpNaSmYGwxH4W9Vmx7CWPNp1FrhECQd36XaHs4tcQVO3Q3NCi6euLX
hFN4dk0Wt7jfCXLnhyZ0LATKxc4p9bTO2yjrRUdCj+2IWqMjSZt7vDnhAVMCAwEA
AaOBmjCBlzAJBgNVHRMEAjAAMB0GA1UdDgQWBBQzFp07FxWCKzRuOOjMIr9Jp14q
KzAfBgNVHSMEGDAWgBS4kt79ihizMMOfVfMzXbTIKYpBFDA1BggrBgEFBQcBAQQp
MCcwJQYIKwYBBQUHMAGGGWh0dHA6Ly9zZXJ2ZXIudzEuZmk6ODg4OC8wEwYDVR0l
BAwwCgYIKwYBBQUHAwIwDQYJKoZIhvcNAQELBQADgYEAZnVzhrhQjXpDnv6rrGE5
+EYDhp0xm9eY5RqmT/deuxzcpm3C8RygAOMc0C9x88FRg+UcNlXeN5txJl+zOFg0
1/gaP/XG0xKFz3OspPDQUiPplZ4++H46B6h2aIfxGXnXo0c+q/giNGg9PoRs1ku+
EkxuCpggI7By9/gzT0LpEp4=
-----END CERTIFICATE-----
