Certificate:
    Data:
        Version: 3 (0x2)
        Serial Number: 15624081837803162907 (0xd8d3e3a6cbe3cd1b)
    Signature Algorithm: sha256WithRSAEncryption
        Issuer: C=FI, O=w1.fi, CN=Root CA
        Validity
            Not Before: Oct  3 22:13:55 2018 GMT
            Not After : Oct  3 22:13:55 2019 GMT
        Subject: C=FI, O=w1.fi, CN=Test User
        Subject Public Key Info:
            Public Key Algorithm: rsaEncryption
                Public-Key: (1024 bit)
                Modulus:
                    00:a6:96:2e:9b:22:8c:df:94:be:8b:89:49:f6:78:
                    76:a2:60:7e:14:95:f3:96:fe:ab:19:25:03:34:64:
                    74:01:3e:a8:9f:7c:f1:47:61:60:4c:82:92:28:7c:
                    2b:a0:0e:cb:87:bf:59:eb:d7:f3:61:22:3b:14:f3:
                    ab:31:f6:5a:95:1f:b8:7a:b8:2c:3c:a9:61:53:78:
                    9b:e8:3e:50:ec:c2:d6:44:e7:43:cd:bc:3e:4e:e7:
                    46:fe:92:9e:c3:98:0f:29:58:c8:cb:89:01:75:47:
                    e9:95:57:0f:76:c5:2f:05:5e:c7:1e:0d:f2:3c:12:
                    63:5d:b9:54:19:af:7f:40:6b
                Exponent: 65537 (0x10001)
        X509v3 extensions:
            X509v3 Basic Constraints: 
                CA:FALSE
            X509v3 Subject Key Identifier: 
                81:DE:DF:E9:5A:00:1A:CA:67:D6:06:DD:65:B2:4E:C5:9A:04:43:7D
            X509v3 Authority Key Identifier: 
                keyid:B8:92:DE:FD:8A:18:B3:30:C3:9F:55:F3:33:5D:B4:C8:29:8A:41:14

            Authority Information Access: 
                OCSP - URI:http://server.w1.fi:8888/

            X509v3 Extended Key Usage: 
                TLS Web Client Authentication
    Signature Algorithm: sha256WithRSAEncryption
         b3:49:8e:c8:93:0a:80:77:7b:dc:de:29:0d:d6:9b:a3:4c:ae:
         99:59:8d:37:e0:dd:3f:3a:63:6c:08:b9:74:b7:2c:27:80:b8:
         ff:6b:c4:0c:60:d7:b9:a2:2c:ab:00:04:43:d8:9d:89:91:43:
         02:07:c9:96:66:d6:ea:8d:83:ee:d1:62:9b:0d:ab:01:c3:6e:
         12:2a:a1:b0:9f:2f:f4:dd:45:aa:08:a3:c9:47:9e:5a:05:09:
         b7:81:3a:b5:d0:e9:56:88:f6:d9:17:6f:62:1e:ab:39:93:df:
         f2:ad:6a:c2:05:7c:7f:39:2f:19:2a:ab:dd:34:4e:38:37:aa:
         ee:30
-----BEGIN CERTIFICATE-----
MIICeTCCAeKgAwIBAgIJANjT46bL480bMA0GCSqGSIb3DQEBCwUAMC8xCzAJBgNV
BAYTAkZJMQ4wDAYDVQQKDAV3MS5maTEQMA4GA1UEAwwHUm9vdCBDQTAeFw0xODEw
MDMyMjEzNTVaFw0xOTEwMDMyMjEzNTVaMDExCzAJBgNVBAYTAkZJMQ4wDAYDVQQK
DAV3MS5maTESMBAGA1UEAwwJVGVzdCBVc2VyMIGfMA0GCSqGSIb3DQEBAQUAA4GN
ADCBiQKBgQCmli6bIozflL6LiUn2eHaiYH4UlfOW/qsZJQM0ZHQBPqiffPFHYWBM
gpIofCugDsuHv1nr1/NhIjsU86sx9lqVH7h6uCw8qWFTeJvoPlDswtZE50PNvD5O
50b+kp7DmA8pWMjLiQF1R+mVVw92xS8FXsceDfI8EmNduVQZr39AawIDAQABo4Ga
MIGXMAkGA1UdEwQCMAAwHQYDVR0OBBYEFIHe3+laABrKZ9YG3WWyTsWaBEN9MB8G
A1UdIwQYMBaAFLiS3v2KGLMww59V8zNdtMgpikEUMDUGCCsGAQUFBwEBBCkwJzAl
BggrBgEFBQcwAYYZaHR0cDovL3NlcnZlci53MS5maTo4ODg4LzATBgNVHSUEDDAK
BggrBgEFBQcDAjANBgkqhkiG9w0BAQsFAAOBgQCzSY7IkwqAd3vc3ikN1pujTK6Z
WY034N0/OmNsCLl0tywngLj/a8QMYNe5oiyrAARD2J2JkUMCB8mWZtbqjYPu0WKb
DasBw24SKqGwny/03UWqCKPJR55aBQm3gTq10OlWiPbZF29iHqs5k9/yrWrCBXx/
OS8ZKqvdNE44N6ruMA==
-----END CERTIFICATE-----
